target datalayout = "e-m:e-p270:32:32-p271:32:32-p272:64:64-i64:64-i128:128-f80:128-n8:16:32:64-S128"
target triple = "x86_64-pc-linux-gnu"

@.str.56 = private unnamed_addr constant [4 x i8] c"%s\0A\00", align 1
@.str.288 = private unnamed_addr constant [2 x i8] c"a\00", align 1
@rebase_path_rewritten_pending.ret = internal global ptr null, align 8
@.str.289 = private unnamed_addr constant [31 x i8] c"rebase-merge/rewritten-pending\00", align 1

; Function Attrs: nounwind uwtable
define internal i32 @is_fixup(i32 noundef %0) #0 {
  %2 = alloca i32, align 4
  store i32 %0, ptr %2, align 4, !tbaa !29
  %3 = load i32, ptr %2, align 4, !tbaa !29
  %4 = icmp eq i32 %3, 4
  br i1 %4, label %8, label %5

5:                                                ; preds = %1
  %6 = load i32, ptr %2, align 4, !tbaa !29
  %7 = icmp eq i32 %6, 5
  br label %8

8:                                                ; preds = %5, %1
  %9 = phi i1 [ true, %1 ], [ %7, %5 ]
  %10 = zext i1 %9 to i32
  ret i32 %10
}

; Function Attrs: nounwind uwtable
define internal ptr @rebase_path_rewritten_pending() #0 {
  %1 = load ptr, ptr @rebase_path_rewritten_pending.ret, align 8, !tbaa !4
  %2 = icmp ne ptr %1, null
  br i1 %2, label %5, label %3

3:                                                ; preds = %0
  %4 = call ptr (ptr, ...) @git_pathdup(ptr noundef @.str.289)
  store ptr %4, ptr @rebase_path_rewritten_pending.ret, align 8, !tbaa !4
  br label %5

5:                                                ; preds = %3, %0
  %6 = load ptr, ptr @rebase_path_rewritten_pending.ret, align 8, !tbaa !4
  ret ptr %6
}

; Function Attrs: nounwind uwtable
define internal void @record_in_rewritten(ptr noundef %0, i32 noundef %1) #0 {
  %3 = alloca ptr, align 8
  %4 = alloca i32, align 4
  %5 = alloca ptr, align 8
  %6 = alloca i32, align 4
  store ptr %0, ptr %3, align 8, !tbaa !84
  store i32 %1, ptr %4, align 4, !tbaa !29
  call void @llvm.lifetime.start.p0(i64 8, ptr %5) #11
  %7 = call ptr @rebase_path_rewritten_pending()
  %8 = call ptr @fopen_or_warn(ptr noundef %7, ptr noundef @.str.288)
  store ptr %8, ptr %5, align 8, !tbaa !178
  %9 = load ptr, ptr %5, align 8, !tbaa !178
  %10 = icmp ne ptr %9, null
  br i1 %10, label %12, label %11

11:                                               ; preds = %2
  store i32 1, ptr %6, align 4
  br label %24

12:                                               ; preds = %2
  %13 = load ptr, ptr %5, align 8, !tbaa !178
  %14 = load ptr, ptr %3, align 8, !tbaa !84
  %15 = call ptr @oid_to_hex(ptr noundef %14)
  %16 = call i32 (ptr, ptr, ...) @fprintf(ptr noundef %13, ptr noundef @.str.56, ptr noundef %15) #11
  %17 = load ptr, ptr %5, align 8, !tbaa !178
  %18 = call i32 @fclose(ptr noundef %17)
  %19 = load i32, ptr %4, align 4, !tbaa !29
  %20 = call i32 @is_fixup(i32 noundef %19)
  %21 = icmp ne i32 %20, 0
  br i1 %21, label %23, label %22

22:                                               ; preds = %12
  call void @flush_rewritten_pending()
  br label %23

23:                                               ; preds = %22, %12
  store i32 0, ptr %6, align 4
  br label %24

24:                                               ; preds = %23, %11
  call void @llvm.lifetime.end.p0(i64 8, ptr %5) #11
  %25 = load i32, ptr %6, align 4
  switch i32 %25, label %27 [
    i32 0, label %26
    i32 1, label %26
  ]

26:                                               ; preds = %24, %24
  ret void

27:                                               ; preds = %24
  unreachable
}