; Function Attrs: nounwind uwtable
define internal fastcc void @record_in_rewritten(ptr noundef %0, i32 noundef %1) unnamed_addr #0 {
  %3 = load ptr, ptr @rebase_path_rewritten_pending.ret, align 8, !tbaa !4
  %.not.i = icmp eq ptr %3, null
  br i1 %.not.i, label %4, label %rebase_path_rewritten_pending.exit

4:                                                ; preds = %2
  %5 = tail call ptr (ptr, ...) @git_pathdup(ptr noundef nonnull @.str.289)
  store ptr %5, ptr @rebase_path_rewritten_pending.ret, align 8, !tbaa !4
  br label %rebase_path_rewritten_pending.exit

rebase_path_rewritten_pending.exit:               ; preds = %2, %4
  %6 = phi ptr [ %5, %4 ], [ %3, %2 ]
  %7 = tail call ptr @fopen_or_warn(ptr noundef %6, ptr noundef nonnull @.str.288) #20
  %.not = icmp eq ptr %7, null
  br i1 %.not, label %14, label %8

8:                                                ; preds = %rebase_path_rewritten_pending.exit
  %9 = tail call ptr @oid_to_hex(ptr noundef %0) #20
  %10 = tail call i32 (ptr, ptr, ...) @fprintf(ptr noundef nonnull %7, ptr noundef nonnull @.str.56, ptr noundef %9) #20
  %11 = tail call i32 @fclose(ptr noundef nonnull %7)
  %12 = and i32 %1, -2
  %.not5 = icmp eq i32 %12, 4
  br i1 %.not5, label %14, label %13

13:                                               ; preds = %8
  tail call fastcc void @flush_rewritten_pending()
  br label %14

14:                                               ; preds = %8, %13, %rebase_path_rewritten_pending.exit
  ret void
}